target datalayout = "e-m:e-p270:32:32-p271:32:32-p272:64:64-i64:64-i128:128-f80:128-n8:16:32:64-S128"
target triple = "x86_64-pc-linux-gnu"

%struct.OSSL_HPKE_KEM_INFO = type { i16, ptr, ptr, ptr, i64, i64, i64, i64, i8 }

@.str = private unnamed_addr constant [35 x i8] c"../openssl/crypto/hpke/hpke_util.c\00", align 1
@__func__.ossl_HPKE_KEM_INFO_find_curve = private unnamed_addr constant [30 x i8] c"ossl_HPKE_KEM_INFO_find_curve\00", align 1

; Function Attrs: nounwind uwtable
define ptr @ossl_HPKE_KEM_INFO_find_curve(ptr noundef %0) #0 {
  %2 = alloca ptr, align 8
  %3 = alloca ptr, align 8
  %4 = alloca i32, align 4
  %5 = alloca i32, align 4
  %6 = alloca ptr, align 8
  %7 = alloca i32, align 4
  store ptr %0, ptr %3, align 8, !tbaa !3
  call void @llvm.lifetime.start.p0(i64 4, ptr %4) #5
  call void @llvm.lifetime.start.p0(i64 4, ptr %5) #5
  store i32 5, ptr %5, align 4, !tbaa !8
  store i32 0, ptr %4, align 4, !tbaa !8
  br label %8

8:                                                ; preds = %39, %1
  %9 = load i32, ptr %4, align 4, !tbaa !8
  %10 = load i32, ptr %5, align 4, !tbaa !8
  %11 = icmp slt i32 %9, %10
  br i1 %11, label %12, label %42

12:                                               ; preds = %8
  call void @llvm.lifetime.start.p0(i64 8, ptr %6) #5
  %13 = load i32, ptr %4, align 4, !tbaa !8
  %14 = sext i32 %13 to i64
  %15 = getelementptr inbounds [5 x %struct.OSSL_HPKE_KEM_INFO], ptr @hpke_kem_tab, i64 0, i64 %14
  %16 = getelementptr inbounds nuw %struct.OSSL_HPKE_KEM_INFO, ptr %15, i32 0, i32 2
  %17 = load ptr, ptr %16, align 8, !tbaa !10
  store ptr %17, ptr %6, align 8, !tbaa !3
  %18 = load ptr, ptr %6, align 8, !tbaa !3
  %19 = icmp eq ptr %18, null
  br i1 %19, label %20, label %26

20:                                               ; preds = %12
  %21 = load i32, ptr %4, align 4, !tbaa !8
  %22 = sext i32 %21 to i64
  %23 = getelementptr inbounds [5 x %struct.OSSL_HPKE_KEM_INFO], ptr @hpke_kem_tab, i64 0, i64 %22
  %24 = getelementptr inbounds nuw %struct.OSSL_HPKE_KEM_INFO, ptr %23, i32 0, i32 1
  %25 = load ptr, ptr %24, align 8, !tbaa !14
  store ptr %25, ptr %6, align 8, !tbaa !3
  br label %26

26:                                               ; preds = %20, %12
  %27 = load ptr, ptr %3, align 8, !tbaa !3
  %28 = load ptr, ptr %6, align 8, !tbaa !3
  %29 = call i32 @OPENSSL_strcasecmp(ptr noundef %27, ptr noundef %28)
  %30 = icmp eq i32 %29, 0
  br i1 %30, label %31, label %35

31:                                               ; preds = %26
  %32 = load i32, ptr %4, align 4, !tbaa !8
  %33 = sext i32 %32 to i64
  %34 = getelementptr inbounds [5 x %struct.OSSL_HPKE_KEM_INFO], ptr @hpke_kem_tab, i64 0, i64 %33
  store ptr %34, ptr %2, align 8
  store i32 1, ptr %7, align 4
  br label %36

35:                                               ; preds = %26
  store i32 0, ptr %7, align 4
  br label %36

36:                                               ; preds = %35, %31
  call void @llvm.lifetime.end.p0(i64 8, ptr %6) #5
  %37 = load i32, ptr %7, align 4
  switch i32 %37, label %43 [
    i32 0, label %38
  ]

38:                                               ; preds = %36
  br label %39

39:                                               ; preds = %38
  %40 = load i32, ptr %4, align 4, !tbaa !8
  %41 = add nsw i32 %40, 1
  store i32 %41, ptr %4, align 4, !tbaa !8
  br label %8, !llvm.loop !15

42:                                               ; preds = %8
  call void @ERR_new()
  call void @ERR_set_debug(ptr noundef @.str, i32 noundef 168, ptr noundef @__func__.ossl_HPKE_KEM_INFO_find_curve)
  call void (i32, i32, ptr, ...) @ERR_set_error(i32 noundef 57, i32 noundef 176, ptr noundef null)
  store ptr null, ptr %2, align 8
  store i32 1, ptr %7, align 4
  br label %43

43:                                               ; preds = %42, %36
  call void @llvm.lifetime.end.p0(i64 4, ptr %5) #5
  call void @llvm.lifetime.end.p0(i64 4, ptr %4) #5
  %44 = load ptr, ptr %2, align 8
  ret ptr %44
}