; Function Attrs: nounwind uwtable
define ptr @ossl_HPKE_KEM_INFO_find_curve(ptr noundef %0) local_unnamed_addr #0 {
  br label %3

2:                                                ; preds = %11
  %indvars.iv.next = add nuw nsw i64 %indvars.iv, 1
  %exitcond.not = icmp eq i64 %indvars.iv.next, 5
  br i1 %exitcond.not, label %13, label %3, !llvm.loop !3

3:                                                ; preds = %1, %2
  %indvars.iv = phi i64 [ 0, %1 ], [ %indvars.iv.next, %2 ]
  %4 = getelementptr inbounds nuw [5 x %struct.OSSL_HPKE_KEM_INFO], ptr @hpke_kem_tab, i64 0, i64 %indvars.iv
  %5 = getelementptr inbounds nuw i8, ptr %4, i64 16
  %6 = load ptr, ptr %5, align 8, !tbaa !5
  %7 = icmp eq ptr %6, null
  br i1 %7, label %8, label %11

8:                                                ; preds = %3
  %9 = getelementptr inbounds nuw i8, ptr %4, i64 8
  %10 = load ptr, ptr %9, align 8, !tbaa !13
  br label %11

11:                                               ; preds = %8, %3
  %.010 = phi ptr [ %10, %8 ], [ %6, %3 ]
  %12 = tail call i32 @OPENSSL_strcasecmp(ptr noundef %0, ptr noundef %.010) #5
  %.not = icmp eq i32 %12, 0
  br i1 %.not, label %.loopexit, label %2

13:                                               ; preds = %2
  tail call void @ERR_new() #5
  tail call void @ERR_set_debug(ptr noundef nonnull @.str, i32 noundef 168, ptr noundef nonnull @__func__.ossl_HPKE_KEM_INFO_find_curve) #5
  tail call void (i32, i32, ptr, ...) @ERR_set_error(i32 noundef 57, i32 noundef 176, ptr noundef null) #5
  br label %.loopexit

.loopexit:                                        ; preds = %11, %13
  %.2 = phi ptr [ null, %13 ], [ %4, %11 ]
  ret ptr %.2
}